target datalayout = "e-m:e-p270:32:32-p271:32:32-p272:64:64-i64:64-i128:128-f80:128-n8:16:32:64-S128"
target triple = "x86_64-pc-linux-gnu"

%struct.ssl_st = type { i32, i16, i16, ptr, ptr, ptr, ptr, ptr, i32, i32, ptr, ptr, i32, i32, ptr, ptr, ptr, ptr, ptr, ptr, ptr, ptr, i32, i32, [32 x i8], ptr, ptr, ptr, ptr, ptr, ptr, ptr, i64, %struct.crypto_ex_data_st, ptr, i32, i32, i32, i32, i16, ptr, i32, i64, ptr, ptr, ptr, ptr, ptr, ptr, i32, i32, ptr, ptr, i8, i8, i32 }
%struct.crypto_ex_data_st = type { ptr }
%struct.ssl3_state_st = type { [8 x i8], [8 x i8], [32 x i8], [32 x i8], i8, i8, %struct.ssl3_buffer_st, %struct.ssl3_buffer_st, %struct.ssl3_record_st, i8, i32, i32, i32, i32, ptr, ptr, %struct.env_md_ctx_st, %struct.env_md_ctx_st, i8, i32, [2 x i8], i32, i8, i8, ptr, ptr, ptr, %struct.anon, [64 x i8], i8, [64 x i8], i8, i32, i32, ptr, i64, ptr, i64, i8, [64 x i8] }
%struct.ssl3_buffer_st = type { ptr, i16, i16, i16 }
%struct.ssl3_record_st = type { i8, i16, ptr }
%struct.env_md_ctx_st = type { ptr, ptr, ptr, ptr }
%struct.anon = type { [64 x i8], i32, [64 x i8], i32, i64, i32, ptr, i32, i32, %union.anon, %union.anon.0, i8, i32, ptr, ptr, i64, ptr, i8, i8, i8, i8, i32, i8, ptr, i64, i8, ptr, i8, i8, i8, %struct.ssl_ecdh_ctx_st, ptr, i16 }
%union.anon = type { i32 }
%union.anon.0 = type { i16 }
%struct.ssl_ecdh_ctx_st = type { ptr, ptr }
%struct.ssl_protocol_method_st = type { i8, ptr, ptr, ptr, ptr, ptr, ptr, ptr, ptr, ptr, ptr, ptr, i32, ptr, ptr }
%struct.cbs_st = type { ptr, i64 }

@.str = private unnamed_addr constant [117 x i8] c"generated/home/dtcxzyw/WorkSpace/Projects/compilers/llvm-opt-benchmark/bench/libquic/libquic/boringssl/ssl/s3_clnt.c\00", align 1

; Function Attrs: nounwind uwtable
define hidden i32 @ssl3_get_certificate_request(ptr noundef %0) #0 {
  %2 = alloca i32, align 4
  %3 = alloca ptr, align 8
  %4 = alloca i32, align 4
  %5 = alloca i32, align 4
  %6 = alloca ptr, align 8
  %7 = alloca ptr, align 8
  %8 = alloca i64, align 8
  %9 = alloca i32, align 4
  %10 = alloca %struct.cbs_st, align 8
  %11 = alloca %struct.cbs_st, align 8
  %12 = alloca %struct.cbs_st, align 8
  %13 = alloca %struct.cbs_st, align 8
  %14 = alloca %struct.cbs_st, align 8
  %15 = alloca ptr, align 8
  store ptr %0, ptr %3, align 8, !tbaa !6
  call void @llvm.lifetime.start.p0(i64 4, ptr %4) #8
  call void @llvm.lifetime.start.p0(i64 4, ptr %5) #8
  store i32 0, ptr %5, align 4, !tbaa !14
  call void @llvm.lifetime.start.p0(i64 8, ptr %6) #8
  store ptr null, ptr %6, align 8, !tbaa !161
  call void @llvm.lifetime.start.p0(i64 8, ptr %7) #8
  store ptr null, ptr %7, align 8, !tbaa !163
  call void @llvm.lifetime.start.p0(i64 8, ptr %8) #8
  %16 = load ptr, ptr %3, align 8, !tbaa !6
  %17 = getelementptr inbounds nuw %struct.ssl_st, ptr %16, i32 0, i32 3
  %18 = load ptr, ptr %17, align 8, !tbaa !74
  %19 = getelementptr inbounds nuw %struct.ssl_protocol_method_st, ptr %18, i32 0, i32 5
  %20 = load ptr, ptr %19, align 8, !tbaa !109
  %21 = load ptr, ptr %3, align 8, !tbaa !6
  %22 = load ptr, ptr %3, align 8, !tbaa !6
  %23 = getelementptr inbounds nuw %struct.ssl_st, ptr %22, i32 0, i32 37
  %24 = load i32, ptr %23, align 8, !tbaa !132
  %25 = zext i32 %24 to i64
  %26 = call i64 %20(ptr noundef %21, i32 noundef 4432, i32 noundef 4433, i32 noundef -1, i64 noundef %25, i32 noundef 1, ptr noundef %4)
  store i64 %26, ptr %8, align 8, !tbaa !106
  %27 = load i32, ptr %4, align 4, !tbaa !14
  %28 = icmp ne i32 %27, 0
  br i1 %28, label %32, label %29

29:                                               ; preds = %1
  %30 = load i64, ptr %8, align 8, !tbaa !106
  %31 = trunc i64 %30 to i32
  store i32 %31, ptr %2, align 4
  store i32 1, ptr %9, align 4
  br label %177

32:                                               ; preds = %1
  %33 = load ptr, ptr %3, align 8, !tbaa !6
  %34 = getelementptr inbounds nuw %struct.ssl_st, ptr %33, i32 0, i32 14
  %35 = load ptr, ptr %34, align 8, !tbaa !54
  %36 = getelementptr inbounds nuw %struct.ssl3_state_st, ptr %35, i32 0, i32 27
  %37 = getelementptr inbounds nuw %struct.anon, ptr %36, i32 0, i32 12
  store i32 0, ptr %37, align 8, !tbaa !69
  %38 = load ptr, ptr %3, align 8, !tbaa !6
  %39 = getelementptr inbounds nuw %struct.ssl_st, ptr %38, i32 0, i32 14
  %40 = load ptr, ptr %39, align 8, !tbaa !54
  %41 = getelementptr inbounds nuw %struct.ssl3_state_st, ptr %40, i32 0, i32 27
  %42 = getelementptr inbounds nuw %struct.anon, ptr %41, i32 0, i32 5
  %43 = load i32, ptr %42, align 8, !tbaa !146
  %44 = icmp eq i32 %43, 14
  br i1 %44, label %45, label %52

45:                                               ; preds = %32
  %46 = load ptr, ptr %3, align 8, !tbaa !6
  %47 = getelementptr inbounds nuw %struct.ssl_st, ptr %46, i32 0, i32 14
  %48 = load ptr, ptr %47, align 8, !tbaa !54
  %49 = getelementptr inbounds nuw %struct.ssl3_state_st, ptr %48, i32 0, i32 27
  %50 = getelementptr inbounds nuw %struct.anon, ptr %49, i32 0, i32 8
  store i32 1, ptr %50, align 4, !tbaa !79
  %51 = load ptr, ptr %3, align 8, !tbaa !6
  call void @ssl3_free_handshake_buffer(ptr noundef %51)
  store i32 1, ptr %2, align 4
  store i32 1, ptr %9, align 4
  br label %177

52:                                               ; preds = %32
  %53 = load ptr, ptr %3, align 8, !tbaa !6
  %54 = getelementptr inbounds nuw %struct.ssl_st, ptr %53, i32 0, i32 14
  %55 = load ptr, ptr %54, align 8, !tbaa !54
  %56 = getelementptr inbounds nuw %struct.ssl3_state_st, ptr %55, i32 0, i32 27
  %57 = getelementptr inbounds nuw %struct.anon, ptr %56, i32 0, i32 5
  %58 = load i32, ptr %57, align 8, !tbaa !146
  %59 = icmp ne i32 %58, 13
  br i1 %59, label %60, label %63

60:                                               ; preds = %52
  %61 = load ptr, ptr %3, align 8, !tbaa !6
  %62 = call i32 @ssl3_send_alert(ptr noundef %61, i32 noundef 2, i32 noundef 10)
  call void @ERR_put_error(i32 noundef 16, i32 noundef 0, i32 noundef 223, ptr noundef @.str, i32 noundef 1325)
  br label %173

63:                                               ; preds = %52
  %64 = load ptr, ptr %3, align 8, !tbaa !6
  %65 = getelementptr inbounds nuw %struct.ssl_st, ptr %64, i32 0, i32 11
  %66 = load ptr, ptr %65, align 8, !tbaa !110
  %67 = load i64, ptr %8, align 8, !tbaa !106
  call void @CBS_init(ptr noundef %10, ptr noundef %66, i64 noundef %67)
  %68 = call ptr @sk_new(ptr noundef @ca_dn_cmp)
  store ptr %68, ptr %7, align 8, !tbaa !163
  %69 = load ptr, ptr %7, align 8, !tbaa !163
  %70 = icmp eq ptr %69, null
  br i1 %70, label %71, label %72

71:                                               ; preds = %63
  call void @ERR_put_error(i32 noundef 16, i32 noundef 0, i32 noundef 65, ptr noundef @.str, i32 noundef 1334)
  br label %173

72:                                               ; preds = %63
  %73 = call i32 @CBS_get_u8_length_prefixed(ptr noundef %10, ptr noundef %11)
  %74 = icmp ne i32 %73, 0
  br i1 %74, label %78, label %75

75:                                               ; preds = %72
  %76 = load ptr, ptr %3, align 8, !tbaa !6
  %77 = call i32 @ssl3_send_alert(ptr noundef %76, i32 noundef 2, i32 noundef 50)
  call void @ERR_put_error(i32 noundef 16, i32 noundef 0, i32 noundef 137, ptr noundef @.str, i32 noundef 1342)
  br label %173

78:                                               ; preds = %72
  %79 = load ptr, ptr %3, align 8, !tbaa !6
  %80 = getelementptr inbounds nuw %struct.ssl_st, ptr %79, i32 0, i32 14
  %81 = load ptr, ptr %80, align 8, !tbaa !54
  %82 = getelementptr inbounds nuw %struct.ssl3_state_st, ptr %81, i32 0, i32 27
  %83 = getelementptr inbounds nuw %struct.anon, ptr %82, i32 0, i32 14
  %84 = load ptr, ptr %3, align 8, !tbaa !6
  %85 = getelementptr inbounds nuw %struct.ssl_st, ptr %84, i32 0, i32 14
  %86 = load ptr, ptr %85, align 8, !tbaa !54
  %87 = getelementptr inbounds nuw %struct.ssl3_state_st, ptr %86, i32 0, i32 27
  %88 = getelementptr inbounds nuw %struct.anon, ptr %87, i32 0, i32 15
  %89 = call i32 @CBS_stow(ptr noundef %11, ptr noundef %83, ptr noundef %88)
  %90 = icmp ne i32 %89, 0
  br i1 %90, label %94, label %91

91:                                               ; preds = %78
  %92 = load ptr, ptr %3, align 8, !tbaa !6
  %93 = call i32 @ssl3_send_alert(ptr noundef %92, i32 noundef 2, i32 noundef 80)
  br label %173

94:                                               ; preds = %78
  %95 = load ptr, ptr %3, align 8, !tbaa !6
  %96 = call zeroext i16 @ssl3_protocol_version(ptr noundef %95)
  %97 = zext i16 %96 to i32
  %98 = icmp sge i32 %97, 771
  br i1 %98, label %99, label %113

99:                                               ; preds = %94
  call void @llvm.lifetime.start.p0(i64 16, ptr %12) #8
  %100 = call i32 @CBS_get_u16_length_prefixed(ptr noundef %10, ptr noundef %12)
  %101 = icmp ne i32 %100, 0
  br i1 %101, label %102, label %106

102:                                              ; preds = %99
  %103 = load ptr, ptr %3, align 8, !tbaa !6
  %104 = call i32 @tls1_parse_peer_sigalgs(ptr noundef %103, ptr noundef %12)
  %105 = icmp ne i32 %104, 0
  br i1 %105, label %109, label %106

106:                                              ; preds = %102, %99
  %107 = load ptr, ptr %3, align 8, !tbaa !6
  %108 = call i32 @ssl3_send_alert(ptr noundef %107, i32 noundef 2, i32 noundef 50)
  call void @ERR_put_error(i32 noundef 16, i32 noundef 0, i32 noundef 137, ptr noundef @.str, i32 noundef 1357)
  store i32 2, ptr %9, align 4
  br label %110

109:                                              ; preds = %102
  store i32 0, ptr %9, align 4
  br label %110

110:                                              ; preds = %106, %109
  call void @llvm.lifetime.end.p0(i64 16, ptr %12) #8
  %111 = load i32, ptr %9, align 4
  switch i32 %111, label %177 [
    i32 0, label %112
    i32 2, label %173
  ]

112:                                              ; preds = %110
  br label %113

113:                                              ; preds = %112, %94
  %114 = call i32 @CBS_get_u16_length_prefixed(ptr noundef %10, ptr noundef %13)
  %115 = icmp ne i32 %114, 0
  br i1 %115, label %119, label %116

116:                                              ; preds = %113
  %117 = load ptr, ptr %3, align 8, !tbaa !6
  %118 = call i32 @ssl3_send_alert(ptr noundef %117, i32 noundef 2, i32 noundef 50)
  call void @ERR_put_error(i32 noundef 16, i32 noundef 0, i32 noundef 162, ptr noundef @.str, i32 noundef 1366)
  br label %173

119:                                              ; preds = %113
  br label %120

120:                                              ; preds = %154, %119
  %121 = call i64 @CBS_len(ptr noundef %13)
  %122 = icmp ugt i64 %121, 0
  br i1 %122, label %123, label %155

123:                                              ; preds = %120
  call void @llvm.lifetime.start.p0(i64 16, ptr %14) #8
  %124 = call i32 @CBS_get_u16_length_prefixed(ptr noundef %13, ptr noundef %14)
  %125 = icmp ne i32 %124, 0
  br i1 %125, label %129, label %126

126:                                              ; preds = %123
  %127 = load ptr, ptr %3, align 8, !tbaa !6
  %128 = call i32 @ssl3_send_alert(ptr noundef %127, i32 noundef 2, i32 noundef 50)
  call void @ERR_put_error(i32 noundef 16, i32 noundef 0, i32 noundef 123, ptr noundef @.str, i32 noundef 1375)
  store i32 2, ptr %9, align 4
  br label %152

129:                                              ; preds = %123
  call void @llvm.lifetime.start.p0(i64 8, ptr %15) #8
  %130 = call ptr @CBS_data(ptr noundef %14)
  store ptr %130, ptr %15, align 8, !tbaa !133
  %131 = call i64 @CBS_len(ptr noundef %14)
  %132 = call ptr @d2i_X509_NAME(ptr noundef null, ptr noundef %15, i64 noundef %131)
  store ptr %132, ptr %6, align 8, !tbaa !161
  %133 = load ptr, ptr %6, align 8, !tbaa !161
  %134 = icmp eq ptr %133, null
  br i1 %134, label %141, label %135

135:                                              ; preds = %129
  %136 = load ptr, ptr %15, align 8, !tbaa !133
  %137 = call ptr @CBS_data(ptr noundef %14)
  %138 = call i64 @CBS_len(ptr noundef %14)
  %139 = getelementptr inbounds nuw i8, ptr %137, i64 %138
  %140 = icmp ne ptr %136, %139
  br i1 %140, label %141, label %144

141:                                              ; preds = %135, %129
  %142 = load ptr, ptr %3, align 8, !tbaa !6
  %143 = call i32 @ssl3_send_alert(ptr noundef %142, i32 noundef 2, i32 noundef 50)
  call void @ERR_put_error(i32 noundef 16, i32 noundef 0, i32 noundef 137, ptr noundef @.str, i32 noundef 1385)
  store i32 2, ptr %9, align 4
  br label %151

144:                                              ; preds = %135
  %145 = load ptr, ptr %7, align 8, !tbaa !163
  %146 = load ptr, ptr %6, align 8, !tbaa !161
  %147 = call i64 @sk_push(ptr noundef %145, ptr noundef %146)
  %148 = icmp ne i64 %147, 0
  br i1 %148, label %150, label %149

149:                                              ; preds = %144
  call void @ERR_put_error(i32 noundef 16, i32 noundef 0, i32 noundef 65, ptr noundef @.str, i32 noundef 1390)
  store i32 2, ptr %9, align 4
  br label %151

150:                                              ; preds = %144
  store ptr null, ptr %6, align 8, !tbaa !161
  store i32 0, ptr %9, align 4
  br label %151

151:                                              ; preds = %149, %141, %150
  call void @llvm.lifetime.end.p0(i64 8, ptr %15) #8
  br label %152

152:                                              ; preds = %126, %151
  call void @llvm.lifetime.end.p0(i64 16, ptr %14) #8
  %153 = load i32, ptr %9, align 4
  switch i32 %153, label %177 [
    i32 0, label %154
    i32 2, label %173
  ]

154:                                              ; preds = %152
  br label %120, !llvm.loop !164

155:                                              ; preds = %120
  %156 = load ptr, ptr %3, align 8, !tbaa !6
  %157 = getelementptr inbounds nuw %struct.ssl_st, ptr %156, i32 0, i32 14
  %158 = load ptr, ptr %157, align 8, !tbaa !54
  %159 = getelementptr inbounds nuw %struct.ssl3_state_st, ptr %158, i32 0, i32 27
  %160 = getelementptr inbounds nuw %struct.anon, ptr %159, i32 0, i32 12
  store i32 1, ptr %160, align 8, !tbaa !69
  %161 = load ptr, ptr %3, align 8, !tbaa !6
  %162 = getelementptr inbounds nuw %struct.ssl_st, ptr %161, i32 0, i32 14
  %163 = load ptr, ptr %162, align 8, !tbaa !54
  %164 = getelementptr inbounds nuw %struct.ssl3_state_st, ptr %163, i32 0, i32 27
  %165 = getelementptr inbounds nuw %struct.anon, ptr %164, i32 0, i32 13
  %166 = load ptr, ptr %165, align 8, !tbaa !165
  call void @sk_pop_free(ptr noundef %166, ptr noundef @X509_NAME_free)
  %167 = load ptr, ptr %7, align 8, !tbaa !163
  %168 = load ptr, ptr %3, align 8, !tbaa !6
  %169 = getelementptr inbounds nuw %struct.ssl_st, ptr %168, i32 0, i32 14
  %170 = load ptr, ptr %169, align 8, !tbaa !54
  %171 = getelementptr inbounds nuw %struct.ssl3_state_st, ptr %170, i32 0, i32 27
  %172 = getelementptr inbounds nuw %struct.anon, ptr %171, i32 0, i32 13
  store ptr %167, ptr %172, align 8, !tbaa !165
  store ptr null, ptr %7, align 8, !tbaa !163
  store i32 1, ptr %5, align 4, !tbaa !14
  br label %173

173:                                              ; preds = %155, %152, %110, %116, %91, %75, %71, %60
  %174 = load ptr, ptr %6, align 8, !tbaa !161
  call void @X509_NAME_free(ptr noundef %174)
  %175 = load ptr, ptr %7, align 8, !tbaa !163
  call void @sk_pop_free(ptr noundef %175, ptr noundef @X509_NAME_free)
  %176 = load i32, ptr %5, align 4, !tbaa !14
  store i32 %176, ptr %2, align 4
  store i32 1, ptr %9, align 4
  br label %177

177:                                              ; preds = %173, %152, %110, %45, %29
  call void @llvm.lifetime.end.p0(i64 8, ptr %8) #8
  call void @llvm.lifetime.end.p0(i64 8, ptr %7) #8
  call void @llvm.lifetime.end.p0(i64 8, ptr %6) #8
  call void @llvm.lifetime.end.p0(i64 4, ptr %5) #8
  call void @llvm.lifetime.end.p0(i64 4, ptr %4) #8
  %178 = load i32, ptr %2, align 4
  ret i32 %178
}