; Function Attrs: nounwind uwtable
define hidden i32 @ssl3_get_certificate_request(ptr noundef %0) local_unnamed_addr #0 {
  %2 = alloca i32, align 4
  %3 = alloca %struct.cbs_st, align 8
  %4 = alloca %struct.cbs_st, align 8
  %5 = alloca %struct.cbs_st, align 8
  %6 = alloca %struct.cbs_st, align 8
  %7 = alloca %struct.cbs_st, align 8
  %8 = alloca ptr, align 8
  call void @llvm.lifetime.start.p0(i64 4, ptr nonnull %2) #11
  %9 = getelementptr inbounds nuw i8, ptr %0, i64 8
  %10 = load ptr, ptr %9, align 8, !tbaa !70
  %11 = getelementptr inbounds nuw i8, ptr %10, i64 40
  %12 = load ptr, ptr %11, align 8, !tbaa !71
  %13 = getelementptr inbounds nuw i8, ptr %0, i64 272
  %14 = load i32, ptr %13, align 8, !tbaa !125
  %15 = zext i32 %14 to i64
  %16 = call i64 %12(ptr noundef %0, i32 noundef 4432, i32 noundef 4433, i32 noundef -1, i64 noundef %15, i32 noundef 1, ptr noundef nonnull %2) #11
  %17 = load i32, ptr %2, align 4, !tbaa !73
  %.not = icmp eq i32 %17, 0
  br i1 %.not, label %18, label %20

18:                                               ; preds = %1
  %19 = trunc i64 %16 to i32
  br label %87

20:                                               ; preds = %1
  %21 = getelementptr inbounds nuw i8, ptr %0, i64 80
  %22 = load ptr, ptr %21, align 8, !tbaa !49
  %23 = getelementptr inbounds nuw i8, ptr %22, i64 464
  store i32 0, ptr %23, align 8, !tbaa !74
  %24 = getelementptr inbounds nuw i8, ptr %22, i64 432
  %25 = load i32, ptr %24, align 8, !tbaa !129
  switch i32 %25, label %28 [
    i32 14, label %26
    i32 13, label %30
  ]

26:                                               ; preds = %20
  %27 = getelementptr inbounds nuw i8, ptr %22, i64 452
  store i32 1, ptr %27, align 4, !tbaa !82
  call void @ssl3_free_handshake_buffer(ptr noundef nonnull %0) #11
  br label %87

28:                                               ; preds = %20
  %29 = call i32 @ssl3_send_alert(ptr noundef nonnull %0, i32 noundef 2, i32 noundef 10) #11
  call void @ERR_put_error(i32 noundef 16, i32 noundef 0, i32 noundef 223, ptr noundef nonnull @.str, i32 noundef 1325) #11
  br label %86

30:                                               ; preds = %20
  %31 = getelementptr inbounds nuw i8, ptr %0, i64 64
  %32 = load ptr, ptr %31, align 8, !tbaa !107
  call void @CBS_init(ptr noundef nonnull %3, ptr noundef %32, i64 noundef %16) #11
  %33 = call ptr @sk_new(ptr noundef nonnull @ca_dn_cmp) #11
  %34 = icmp eq ptr %33, null
  br i1 %34, label %35, label %36

35:                                               ; preds = %30
  call void @ERR_put_error(i32 noundef 16, i32 noundef 0, i32 noundef 65, ptr noundef nonnull @.str, i32 noundef 1334) #11
  br label %86

36:                                               ; preds = %30
  %37 = call i32 @CBS_get_u8_length_prefixed(ptr noundef nonnull %3, ptr noundef nonnull %4) #11
  %.not46 = icmp eq i32 %37, 0
  br i1 %.not46, label %38, label %40

38:                                               ; preds = %36
  %39 = call i32 @ssl3_send_alert(ptr noundef nonnull %0, i32 noundef 2, i32 noundef 50) #11
  call void @ERR_put_error(i32 noundef 16, i32 noundef 0, i32 noundef 137, ptr noundef nonnull @.str, i32 noundef 1342) #11
  br label %86

40:                                               ; preds = %36
  %41 = load ptr, ptr %21, align 8, !tbaa !49
  %42 = getelementptr inbounds nuw i8, ptr %41, i64 480
  %43 = getelementptr inbounds nuw i8, ptr %41, i64 488
  %44 = call i32 @CBS_stow(ptr noundef nonnull %4, ptr noundef nonnull %42, ptr noundef nonnull %43) #11
  %.not47 = icmp eq i32 %44, 0
  br i1 %.not47, label %45, label %47

45:                                               ; preds = %40
  %46 = call i32 @ssl3_send_alert(ptr noundef nonnull %0, i32 noundef 2, i32 noundef 80) #11
  br label %86

47:                                               ; preds = %40
  %48 = call zeroext i16 @ssl3_protocol_version(ptr noundef nonnull %0) #11
  %49 = icmp ugt i16 %48, 770
  br i1 %49, label %50, label %56

50:                                               ; preds = %47
  call void @llvm.lifetime.start.p0(i64 16, ptr nonnull %5) #11
  %51 = call i32 @CBS_get_u16_length_prefixed(ptr noundef nonnull %3, ptr noundef nonnull %5) #11
  %.not48 = icmp eq i32 %51, 0
  br i1 %.not48, label %54, label %52

52:                                               ; preds = %50
  %53 = call i32 @tls1_parse_peer_sigalgs(ptr noundef nonnull %0, ptr noundef nonnull %5) #11
  %.not49 = icmp eq i32 %53, 0
  br i1 %.not49, label %54, label %.thread

.thread:                                          ; preds = %52
  call void @llvm.lifetime.end.p0(i64 16, ptr nonnull %5) #11
  br label %56

54:                                               ; preds = %50, %52
  %55 = call i32 @ssl3_send_alert(ptr noundef nonnull %0, i32 noundef 2, i32 noundef 50) #11
  call void @ERR_put_error(i32 noundef 16, i32 noundef 0, i32 noundef 137, ptr noundef nonnull @.str, i32 noundef 1357) #11
  call void @llvm.lifetime.end.p0(i64 16, ptr nonnull %5) #11
  br label %86

56:                                               ; preds = %.thread, %47
  %57 = call i32 @CBS_get_u16_length_prefixed(ptr noundef nonnull %3, ptr noundef nonnull %6) #11
  %.not50 = icmp eq i32 %57, 0
  br i1 %.not50, label %59, label %.preheader

.preheader:                                       ; preds = %56
  %58 = call i64 @CBS_len(ptr noundef nonnull %6) #11
  %.not5165 = icmp eq i64 %58, 0
  br i1 %.not5165, label %._crit_edge, label %.lr.ph

59:                                               ; preds = %56
  %60 = call i32 @ssl3_send_alert(ptr noundef nonnull %0, i32 noundef 2, i32 noundef 50) #11
  call void @ERR_put_error(i32 noundef 16, i32 noundef 0, i32 noundef 162, ptr noundef nonnull @.str, i32 noundef 1366) #11
  br label %86

.lr.ph:                                           ; preds = %.preheader, %78
  call void @llvm.lifetime.start.p0(i64 16, ptr nonnull %7) #11
  %61 = call i32 @CBS_get_u16_length_prefixed(ptr noundef nonnull %6, ptr noundef nonnull %7) #11
  %.not52 = icmp eq i32 %61, 0
  br i1 %.not52, label %.thread58, label %63

.thread58:                                        ; preds = %.lr.ph
  %62 = call i32 @ssl3_send_alert(ptr noundef nonnull %0, i32 noundef 2, i32 noundef 50) #11
  call void @ERR_put_error(i32 noundef 16, i32 noundef 0, i32 noundef 123, ptr noundef nonnull @.str, i32 noundef 1375) #11
  call void @llvm.lifetime.end.p0(i64 16, ptr nonnull %7) #11
  br label %86

63:                                               ; preds = %.lr.ph
  call void @llvm.lifetime.start.p0(i64 8, ptr nonnull %8) #11
  %64 = call ptr @CBS_data(ptr noundef nonnull %7) #11
  store ptr %64, ptr %8, align 8, !tbaa !126
  %65 = call i64 @CBS_len(ptr noundef nonnull %7) #11
  %66 = call ptr @d2i_X509_NAME(ptr noundef null, ptr noundef nonnull %8, i64 noundef %65) #11
  %67 = icmp eq ptr %66, null
  br i1 %67, label %73, label %68

68:                                               ; preds = %63
  %69 = load ptr, ptr %8, align 8, !tbaa !126
  %70 = call ptr @CBS_data(ptr noundef nonnull %7) #11
  %71 = call i64 @CBS_len(ptr noundef nonnull %7) #11
  %72 = getelementptr inbounds nuw i8, ptr %70, i64 %71
  %.not53 = icmp eq ptr %69, %72
  br i1 %.not53, label %75, label %73

73:                                               ; preds = %68, %63
  %74 = call i32 @ssl3_send_alert(ptr noundef nonnull %0, i32 noundef 2, i32 noundef 50) #11
  call void @ERR_put_error(i32 noundef 16, i32 noundef 0, i32 noundef 137, ptr noundef nonnull @.str, i32 noundef 1385) #11
  br label %.thread61

75:                                               ; preds = %68
  %76 = call i64 @sk_push(ptr noundef nonnull %33, ptr noundef nonnull %66) #11
  %.not54 = icmp eq i64 %76, 0
  br i1 %.not54, label %77, label %78

77:                                               ; preds = %75
  call void @ERR_put_error(i32 noundef 16, i32 noundef 0, i32 noundef 65, ptr noundef nonnull @.str, i32 noundef 1390) #11
  br label %.thread61

.thread61:                                        ; preds = %73, %77
  call void @llvm.lifetime.end.p0(i64 8, ptr nonnull %8) #11
  call void @llvm.lifetime.end.p0(i64 16, ptr nonnull %7) #11
  br label %86

78:                                               ; preds = %75
  call void @llvm.lifetime.end.p0(i64 8, ptr nonnull %8) #11
  call void @llvm.lifetime.end.p0(i64 16, ptr nonnull %7) #11
  %79 = call i64 @CBS_len(ptr noundef nonnull %6) #11
  %.not51 = icmp eq i64 %79, 0
  br i1 %.not51, label %._crit_edge, label %.lr.ph

._crit_edge:                                      ; preds = %78, %.preheader
  %80 = load ptr, ptr %21, align 8, !tbaa !49
  %81 = getelementptr inbounds nuw i8, ptr %80, i64 464
  store i32 1, ptr %81, align 8, !tbaa !74
  %82 = getelementptr inbounds nuw i8, ptr %80, i64 472
  %83 = load ptr, ptr %82, align 8, !tbaa !144
  call void @sk_pop_free(ptr noundef %83, ptr noundef nonnull @X509_NAME_free) #11
  %84 = load ptr, ptr %21, align 8, !tbaa !49
  %85 = getelementptr inbounds nuw i8, ptr %84, i64 472
  store ptr %33, ptr %85, align 8, !tbaa !144
  br label %86

86:                                               ; preds = %.thread61, %.thread58, %54, %._crit_edge, %59, %45, %38, %35, %28
  %.040 = phi i32 [ 0, %28 ], [ 0, %35 ], [ 0, %54 ], [ 1, %._crit_edge ], [ 0, %59 ], [ 0, %45 ], [ 0, %38 ], [ 0, %.thread58 ], [ 0, %.thread61 ]
  %.037 = phi ptr [ null, %28 ], [ null, %35 ], [ null, %54 ], [ null, %._crit_edge ], [ null, %59 ], [ null, %45 ], [ null, %38 ], [ null, %.thread58 ], [ %66, %.thread61 ]
  %.036 = phi ptr [ null, %28 ], [ null, %35 ], [ %33, %54 ], [ null, %._crit_edge ], [ %33, %59 ], [ %33, %45 ], [ %33, %38 ], [ %33, %.thread58 ], [ %33, %.thread61 ]
  call void @X509_NAME_free(ptr noundef %.037) #11
  call void @sk_pop_free(ptr noundef %.036, ptr noundef nonnull @X509_NAME_free) #11
  br label %87

87:                                               ; preds = %86, %26, %18
  %.035 = phi i32 [ 1, %26 ], [ %.040, %86 ], [ %19, %18 ]
  call void @llvm.lifetime.end.p0(i64 4, ptr nonnull %2) #11
  ret i32 %.035
}